target datalayout = "e-m:e-p270:32:32-p271:32:32-p272:64:64-i64:64-i128:128-f80:128-n8:16:32:64-S128"
target triple = "x86_64-pc-linux-gnu"

; Function Attrs: nounwind uwtable
define dso_local float @dt_colorspaces_deltaE_1976(ptr noundef %0, ptr noundef %1) #0 {
  %3 = alloca ptr, align 8
  %4 = alloca ptr, align 8
  %5 = alloca float, align 4
  %6 = alloca i32, align 4
  %7 = alloca float, align 4
  store ptr %0, ptr %3, align 8, !tbaa !7
  store ptr %1, ptr %4, align 8, !tbaa !7
  call void @llvm.lifetime.start.p0(i64 4, ptr %5) #3
  store float 0.000000e+00, ptr %5, align 4, !tbaa !12
  call void @llvm.lifetime.start.p0(i64 4, ptr %6) #3
  store i32 0, ptr %6, align 4, !tbaa !14
  br label %8

8:                                                ; preds = %29, %2
  %9 = load i32, ptr %6, align 4, !tbaa !14
  %10 = icmp slt i32 %9, 3
  br i1 %10, label %12, label %11

11:                                               ; preds = %8
  call void @llvm.lifetime.end.p0(i64 4, ptr %6) #3
  br label %32

12:                                               ; preds = %8
  call void @llvm.lifetime.start.p0(i64 4, ptr %7) #3
  %13 = load ptr, ptr %3, align 8, !tbaa !7
  %14 = load i32, ptr %6, align 4, !tbaa !14
  %15 = sext i32 %14 to i64
  %16 = getelementptr inbounds float, ptr %13, i64 %15
  %17 = load float, ptr %16, align 4, !tbaa !12
  %18 = load ptr, ptr %4, align 8, !tbaa !7
  %19 = load i32, ptr %6, align 4, !tbaa !14
  %20 = sext i32 %19 to i64
  %21 = getelementptr inbounds float, ptr %18, i64 %20
  %22 = load float, ptr %21, align 4, !tbaa !12
  %23 = fsub reassoc nsz arcp contract afn float %17, %22
  store float %23, ptr %7, align 4, !tbaa !12
  %24 = load float, ptr %7, align 4, !tbaa !12
  %25 = load float, ptr %7, align 4, !tbaa !12
  %26 = fmul reassoc nsz arcp contract afn float %24, %25
  %27 = load float, ptr %5, align 4, !tbaa !12
  %28 = fadd reassoc nsz arcp contract afn float %27, %26
  store float %28, ptr %5, align 4, !tbaa !12
  call void @llvm.lifetime.end.p0(i64 4, ptr %7) #3
  br label %29

29:                                               ; preds = %12
  %30 = load i32, ptr %6, align 4, !tbaa !14
  %31 = add nsw i32 %30, 1
  store i32 %31, ptr %6, align 4, !tbaa !14
  br label %8

32:                                               ; preds = %11
  %33 = load float, ptr %5, align 4, !tbaa !12
  %34 = call reassoc nsz arcp contract afn float @llvm.sqrt.f32(float %33)
  call void @llvm.lifetime.end.p0(i64 4, ptr %5) #3
  ret float %34
}