; Function Attrs: nofree norecurse nosync nounwind memory(argmem: read) uwtable
define dso_local float @dt_colorspaces_deltaE_1976(ptr noundef readonly captures(none) %0, ptr noundef readonly captures(none) %1) local_unnamed_addr #0 {
  br label %5

3:                                                ; preds = %5
  %4 = tail call reassoc nsz arcp contract afn float @llvm.sqrt.f32(float %12)
  ret float %4

5:                                                ; preds = %2, %5
  %indvars.iv = phi i64 [ 0, %2 ], [ %indvars.iv.next, %5 ]
  %.011 = phi float [ 0.000000e+00, %2 ], [ %12, %5 ]
  %6 = getelementptr inbounds nuw float, ptr %0, i64 %indvars.iv
  %7 = load float, ptr %6, align 4, !tbaa !7
  %8 = getelementptr inbounds nuw float, ptr %1, i64 %indvars.iv
  %9 = load float, ptr %8, align 4, !tbaa !7
  %10 = fsub reassoc nsz arcp contract afn float %7, %9
  %11 = fmul reassoc nsz arcp contract afn float %10, %10
  %12 = fadd reassoc nsz arcp contract afn float %11, %.011
  %indvars.iv.next = add nuw nsw i64 %indvars.iv, 1
  %exitcond.not = icmp eq i64 %indvars.iv.next, 3
  br i1 %exitcond.not, label %3, label %5
}